   1               		.file	"main.c"
   2               	__SP_H__ = 0x3e
   3               	__SP_L__ = 0x3d
   4               	__SREG__ = 0x3f
   5               	__tmp_reg__ = 0
   6               	__zero_reg__ = 1
   7               		.text
   8               	.Ltext0:
   9               		.cfi_sections	.debug_frame
  10               		.section	.rodata.str1.1,"aMS",@progbits,1
  11               	.LC0:
  12 0000 2042 7574 		.string	" Button "
  12      746F 6E20 
  12      00
  13               	.LC1:
  14 0009 2020 2074 		.string	"   to   "
  14      6F20 2020 
  14      00
  15               	.LC2:
  16 0012 2020 5A45 		.string	"  ZERO  "
  16      524F 2020 
  16      00
  17               	.LC3:
  18 001b 4966 2066 		.string	"If found"
  18      6F75 6E64 
  18      00
  19               	.LC4:
  20 0024 706C 6561 		.string	"please  "
  20      7365 2020 
  20      00
  21               	.LC5:
  22 002d 636F 6E74 		.string	"contact "
  22      6163 7420 
  22      00
  23               	.LC6:
  24 0036 7267 726F 		.string	"rgroener"
  24      656E 6572 
  24      00
  25               	.LC7:
  26 003f 406D 6169 		.string	"@mailbox"
  26      6C62 6F78 
  26      00
  27               	.LC8:
  28 0048 2E6F 7267 		.string	".org    "
  28      2020 2020 
  28      00
  29               	.LC9:
  30 0051 2566 00   		.string	"%f"
  31               	.LC10:
  32 0054 2564 00   		.string	"%d"
  33               		.section	.text.startup,"ax",@progbits
  34               	.global	main
  36               	main:
  37               	.LFB12:
  38               		.file 1 "main.c"
   1:main.c        **** /*
   2:main.c        ****  * Altitude logger for rubber powered models
   3:main.c        ****  * 
   4:main.c        ****  * grn Dec/20
   5:main.c        ****  * 
   6:main.c        ****  * avrdude: safemode: Fuses OK (E:F7, H:D9, L:62)
   7:main.c        ****  * */
   8:main.c        **** #define F_CPU 8000000UL// set the CPU clock
   9:main.c        **** #include <util/delay.h>
  10:main.c        **** #include <avr/interrupt.h>
  11:main.c        **** #include <stdlib.h>
  12:main.c        **** #include <avr/io.h>
  13:main.c        **** #include <stdio.h>                 
  14:main.c        **** #include <avr/pgmspace.h>
  15:main.c        **** #include "fonts.h"
  16:main.c        **** #include "grn_TWI.h"
  17:main.c        **** #include "spi.h"
  18:main.c        **** #include "grn_sht21.h"
  19:main.c        **** #include "ssd1306.h"
  20:main.c        **** 
  21:main.c        **** #define BUTTON	(!(PIND & (1<<PD3))) && (entprell==0) //read button input
  22:main.c        **** #define RELOAD_ENTPRELL 40
  23:main.c        **** #define TOGGLEMAX 4
  24:main.c        **** #define TEMPERATURE 0
  25:main.c        **** #define HUMIDITY 1
  26:main.c        **** 
  27:main.c        **** uint16_t vor_komma(uint32_t value);
  28:main.c        **** uint8_t nach_komma(uint32_t value);
  29:main.c        **** float temp=0;
  30:main.c        **** uint16_t test=0;
  31:main.c        **** uint16_t roman=0;
  32:main.c        **** 
  33:main.c        **** //TIMER
  34:main.c        **** ISR (TIMER1_COMPA_vect);
  35:main.c        **** 
  36:main.c        **** enum state {GREETER, ZERO, MEASURE};
  37:main.c        **** uint8_t state;
  38:main.c        **** volatile uint8_t ms10,ms100,sec,min, entprell;
  39:main.c        **** volatile uint8_t screentoggle, toggle, toggle_alt;
  40:main.c        **** char buffer[20]; // buffer to store string
  41:main.c        **** 
  42:main.c        **** int main(void)
  43:main.c        **** {
  39               		.loc 1 43 1 view -0
  40               		.cfi_startproc
  41               	/* prologue: function */
  42               	/* frame size = 0 */
  43               	/* stack size = 0 */
  44               	.L__stack_usage = 0
  44:main.c        **** 	DDRB 	|= (1<<PB0) | (1<<PB1) | (1<<PB2) | (1<<PB3) | (1<<PB5);//set CS_DISP and RES and D/C output
  45               		.loc 1 44 2 view .LVU1
  46               		.loc 1 44 8 is_stmt 0 view .LVU2
  47 0000 84B1      		in r24,0x4
  48 0002 8F62      		ori r24,lo8(47)
  49 0004 84B9      		out 0x4,r24
  45:main.c        **** 	PORTB	|= (1<<PB0) | (1<<PB1) | (1<<PB2) | (1<<PB3) | (1<<PB5);//set CS_DISP and RES and D/C high
  50               		.loc 1 45 2 is_stmt 1 view .LVU3
  51               		.loc 1 45 8 is_stmt 0 view .LVU4
  52 0006 85B1      		in r24,0x5
  53 0008 8F62      		ori r24,lo8(47)
  54 000a 85B9      		out 0x5,r24
  46:main.c        **** 		
  47:main.c        **** 	DDRC |= (1<<PC5);	//SCL
  55               		.loc 1 47 2 is_stmt 1 view .LVU5
  56               		.loc 1 47 7 is_stmt 0 view .LVU6
  57 000c 3D9A      		sbi 0x7,5
  48:main.c        **** 	PORTC |= (1<<PC5);
  58               		.loc 1 48 2 is_stmt 1 view .LVU7
  59               		.loc 1 48 8 is_stmt 0 view .LVU8
  60 000e 459A      		sbi 0x8,5
  49:main.c        **** 	PORTC &= ~(1<<PC5);
  61               		.loc 1 49 2 is_stmt 1 view .LVU9
  62               		.loc 1 49 8 is_stmt 0 view .LVU10
  63 0010 4598      		cbi 0x8,5
  50:main.c        **** 	DDRD |= (1<<PD1)|(1<<PD2);//set TX0 and SDO as output
  64               		.loc 1 50 2 is_stmt 1 view .LVU11
  65               		.loc 1 50 7 is_stmt 0 view .LVU12
  66 0012 8AB1      		in r24,0xa
  67 0014 8660      		ori r24,lo8(6)
  68 0016 8AB9      		out 0xa,r24
  51:main.c        **** 	PORTD |= (1<<PD1);
  69               		.loc 1 51 2 is_stmt 1 view .LVU13
  70               		.loc 1 51 8 is_stmt 0 view .LVU14
  71 0018 599A      		sbi 0xb,1
  52:main.c        **** 	PORTD &= ~(1<<PD2);
  72               		.loc 1 52 2 is_stmt 1 view .LVU15
  73               		.loc 1 52 8 is_stmt 0 view .LVU16
  74 001a 5A98      		cbi 0xb,2
  53:main.c        **** 
  54:main.c        **** 	DDRD &= ~(1<<PD3) | (1<<PD0);	//Button and RX0 as input(red LED)
  75               		.loc 1 54 2 is_stmt 1 view .LVU17
  76               		.loc 1 54 7 is_stmt 0 view .LVU18
  77 001c 5398      		cbi 0xa,3
  55:main.c        **** 	PORTD |= (1<<PD3);	//activate Pullup
  78               		.loc 1 55 2 is_stmt 1 view .LVU19
  79               		.loc 1 55 8 is_stmt 0 view .LVU20
  80 001e 5B9A      		sbi 0xb,3
  56:main.c        **** 	
  57:main.c        **** 	//init SPI as master without interrupt
  58:main.c        **** 	SPI_MasterInit();
  81               		.loc 1 58 2 is_stmt 1 view .LVU21
  82 0020 0E94 0000 		call SPI_MasterInit
  59:main.c        ****     //Timer 1 Configuration
  60:main.c        **** 	OCR1A = 1249;	//OCR1A = 0x3D08;==1sec
  83               		.loc 1 60 2 view .LVU22
  84               		.loc 1 60 8 is_stmt 0 view .LVU23
  85 0024 81EE      		ldi r24,lo8(-31)
  86 0026 94E0      		ldi r25,lo8(4)
  87 0028 9093 8900 		sts 136+1,r25
  88 002c 8093 8800 		sts 136,r24
  61:main.c        **** 	
  62:main.c        ****     TCCR1B |= (1 << WGM12);
  89               		.loc 1 62 5 is_stmt 1 view .LVU24
  90               		.loc 1 62 12 is_stmt 0 view .LVU25
  91 0030 8091 8100 		lds r24,129
  92 0034 8860      		ori r24,lo8(8)
  93 0036 8093 8100 		sts 129,r24
  63:main.c        ****     // Mode 4, CTC on OCR1A
  64:main.c        **** 
  65:main.c        ****     TIMSK1 |= (1 << OCIE1A);
  94               		.loc 1 65 5 is_stmt 1 view .LVU26
  95               		.loc 1 65 12 is_stmt 0 view .LVU27
  96 003a 8091 6F00 		lds r24,111
  97 003e 8260      		ori r24,lo8(2)
  98 0040 8093 6F00 		sts 111,r24
  66:main.c        ****     //Set interrupt on compare match
  67:main.c        **** 
  68:main.c        ****     TCCR1B |= (1 << CS11) | (1 << CS10);
  99               		.loc 1 68 5 is_stmt 1 view .LVU28
 100               		.loc 1 68 12 is_stmt 0 view .LVU29
 101 0044 8091 8100 		lds r24,129
 102 0048 8360      		ori r24,lo8(3)
 103 004a 8093 8100 		sts 129,r24
  69:main.c        ****     // set prescaler to 64 and start the timer
  70:main.c        **** 
  71:main.c        ****     sei();
 104               		.loc 1 71 5 is_stmt 1 view .LVU30
 105               	/* #APP */
 106               	 ;  71 "main.c" 1
 107 004e 7894      		sei
 108               	 ;  0 "" 2
  72:main.c        ****     // enable interrupts
  73:main.c        ****     
  74:main.c        ****     ms10=0;
 109               		.loc 1 74 5 view .LVU31
 110               		.loc 1 74 9 is_stmt 0 view .LVU32
 111               	/* #NOAPP */
 112 0050 1092 0000 		sts ms10,__zero_reg__
  75:main.c        ****     ms100=0;
 113               		.loc 1 75 5 is_stmt 1 view .LVU33
 114               		.loc 1 75 10 is_stmt 0 view .LVU34
 115 0054 1092 0000 		sts ms100,__zero_reg__
  76:main.c        ****     sec=0;
 116               		.loc 1 76 5 is_stmt 1 view .LVU35
 117               		.loc 1 76 8 is_stmt 0 view .LVU36
 118 0058 1092 0000 		sts sec,__zero_reg__
  77:main.c        ****     min=0;
 119               		.loc 1 77 5 is_stmt 1 view .LVU37
 120               		.loc 1 77 8 is_stmt 0 view .LVU38
 121 005c 1092 0000 		sts min,__zero_reg__
  78:main.c        ****     entprell=0;
 122               		.loc 1 78 5 is_stmt 1 view .LVU39
 123               		.loc 1 78 13 is_stmt 0 view .LVU40
 124 0060 1092 0000 		sts entprell,__zero_reg__
  79:main.c        ****     screentoggle=3;
 125               		.loc 1 79 5 is_stmt 1 view .LVU41
 126               		.loc 1 79 17 is_stmt 0 view .LVU42
 127 0064 83E0      		ldi r24,lo8(3)
 128 0066 8093 0000 		sts screentoggle,r24
  80:main.c        ****     toggle=0;
 129               		.loc 1 80 5 is_stmt 1 view .LVU43
 130               		.loc 1 80 11 is_stmt 0 view .LVU44
 131 006a 1092 0000 		sts toggle,__zero_reg__
  81:main.c        ****     toggle_alt=toggle;
 132               		.loc 1 81 5 is_stmt 1 view .LVU45
 133               		.loc 1 81 15 is_stmt 0 view .LVU46
 134 006e 8091 0000 		lds r24,toggle
 135 0072 8093 0000 		sts toggle_alt,r24
  82:main.c        **** 		
  83:main.c        **** 	Display_Init();
 136               		.loc 1 83 2 is_stmt 1 view .LVU47
 137 0076 0E94 0000 		call Display_Init
  84:main.c        **** 	Display_Clear();
 138               		.loc 1 84 2 view .LVU48
 139 007a 0E94 0000 		call Display_Clear
  85:main.c        **** 	Set_Page_Address(0);
 140               		.loc 1 85 2 view .LVU49
 141 007e 80E0      		ldi r24,0
 142 0080 0E94 0000 		call Set_Page_Address
  86:main.c        ****     Set_Column_Address(0);
 143               		.loc 1 86 5 view .LVU50
 144 0084 80E0      		ldi r24,0
 145 0086 0E94 0000 		call Set_Column_Address
  87:main.c        ****     TWIInit();
 146               		.loc 1 87 5 view .LVU51
 147 008a 0E94 0000 		call TWIInit
  88:main.c        **** 	sht21_init();
 148               		.loc 1 88 2 view .LVU52
 149 008e 0E94 0000 		call sht21_init
  89:main.c        **** 	//DPS310_init(LOW);
  90:main.c        ****    state = MEASURE;
 150               		.loc 1 90 4 view .LVU53
 151               		.loc 1 90 10 is_stmt 0 view .LVU54
 152 0092 82E0      		ldi r24,lo8(2)
 153 0094 8093 0000 		sts state,r24
  91:main.c        **** 	//sprintf(buffer,"sec=%d",sec);
  92:main.c        **** 	//Write_String(14,0,0,"test");
  93:main.c        **** 	/*
  94:main.c        **** 	 * 
  95:main.c        **** 	 * SHT21 0x80 / 0x81
  96:main.c        **** 	 * DPS310 0xee / 0xef
  97:main.c        **** 	 * 
  98:main.c        **** 	 * */
  99:main.c        **** 	while(1)
 100:main.c        **** 	{ 	
 101:main.c        **** 		switch(state)
 102:main.c        **** 		{
 103:main.c        **** 			case GREETER:	if(BUTTON)
 104:main.c        **** 							{
 105:main.c        **** 								state=ZERO;
 106:main.c        **** 								entprell=RELOAD_ENTPRELL;
 107:main.c        **** 								Write_String(14,0,0," Button ");
 108:main.c        **** 								Write_String(14,1,0,"   to   ");
 109:main.c        **** 								Write_String(14,2,0, "  ZERO  ");
 110:main.c        **** 							}
 111:main.c        **** 							if(toggle)
 112:main.c        **** 							{
 113:main.c        **** 									Write_String(14,0,0,"If found");
 114:main.c        **** 									Write_String(14,1,0,"please  ");
 115:main.c        **** 									Write_String(14,2,0, "contact ");
 116:main.c        **** 							}else
 117:main.c        **** 							{
 118:main.c        **** 									Write_String(14,0,0,"rgroener");
 119:main.c        **** 									Write_String(14,1,0,"@mailbox");
 120:main.c        **** 									Write_String(14,2,0, ".org    ");	
 121:main.c        **** 							}
 122:main.c        **** 							break;
 123:main.c        **** 			case ZERO:		if(BUTTON)
 124:main.c        **** 							{
 125:main.c        **** 								state=MEASURE;
 154               		.loc 1 125 14 view .LVU55
 155 0098 92E0      		ldi r25,lo8(2)
 156 009a C92E      		mov r12,r25
 126:main.c        **** 								entprell=RELOAD_ENTPRELL;
 157               		.loc 1 126 17 view .LVU56
 158 009c 28E2      		ldi r18,lo8(40)
 159 009e D22E      		mov r13,r18
 127:main.c        **** 								Write_String(14,0,0," Button ");
 128:main.c        **** 								Write_String(14,1,0,"   to   ");
 129:main.c        **** 								Write_String(14,2,0, "  ZERO  ");
 130:main.c        **** 							}
 131:main.c        **** 							break;
 132:main.c        **** 			case MEASURE:	temp = (sht21_measure(TEMPERATURE));
 133:main.c        **** 							sprintf(buffer,"%f",temp);
 160               		.loc 1 133 8 view .LVU57
 161 00a0 30E0      		ldi r19,lo8(.LC9)
 162 00a2 E32E      		mov r14,r19
 163 00a4 30E0      		ldi r19,hi8(.LC9)
 164 00a6 F32E      		mov r15,r19
 165 00a8 C0E0      		ldi r28,lo8(buffer)
 166 00aa D0E0      		ldi r29,hi8(buffer)
 134:main.c        **** 							Write_String(14,0,0,buffer);
 135:main.c        **** 							
 136:main.c        **** 							sprintf(buffer,"%d",test);
 167               		.loc 1 136 8 view .LVU58
 168 00ac 00E0      		ldi r16,lo8(.LC10)
 169 00ae 10E0      		ldi r17,hi8(.LC10)
 170               	.L5:
  99:main.c        **** 	{ 	
 171               		.loc 1 99 2 is_stmt 1 view .LVU59
 101:main.c        **** 		{
 172               		.loc 1 101 3 view .LVU60
 173 00b0 8130      		cpi r24,lo8(1)
 174 00b2 01F0      		breq .L3
 175               	.L13:
 176 00b4 8230      		cpi r24,lo8(2)
 177 00b6 01F4      		brne .+2
 178 00b8 00C0      		rjmp .L4
 179 00ba 8111      		cpse r24,__zero_reg__
 180 00bc 00C0      		rjmp .L5
 103:main.c        **** 							{
 181               		.loc 1 103 18 view .LVU61
 103:main.c        **** 							{
 182               		.loc 1 103 20 is_stmt 0 view .LVU62
 183 00be 4B99      		sbic 0x9,3
 184 00c0 00C0      		rjmp .L6
 103:main.c        **** 							{
 185               		.loc 1 103 21 discriminator 1 view .LVU63
 186 00c2 8091 0000 		lds r24,entprell
 187 00c6 8823      		tst r24
 188 00c8 01F4      		brne .+2
 189 00ca 00C0      		rjmp .L12
 190               	.L6:
 111:main.c        **** 							{
 191               		.loc 1 111 8 is_stmt 1 view .LVU64
 111:main.c        **** 							{
 192               		.loc 1 111 11 is_stmt 0 view .LVU65
 193 00cc 8091 0000 		lds r24,toggle
 111:main.c        **** 							{
 194               		.loc 1 111 10 view .LVU66
 195 00d0 8823      		tst r24
 196 00d2 01F4      		brne .+2
 197 00d4 00C0      		rjmp .L7
 113:main.c        **** 									Write_String(14,1,0,"please  ");
 198               		.loc 1 113 10 is_stmt 1 view .LVU67
 199 00d6 20E0      		ldi r18,lo8(.LC3)
 200 00d8 30E0      		ldi r19,hi8(.LC3)
 201 00da 40E0      		ldi r20,0
 202 00dc 60E0      		ldi r22,0
 203 00de 8EE0      		ldi r24,lo8(14)
 204 00e0 0E94 0000 		call Write_String
 114:main.c        **** 									Write_String(14,2,0, "contact ");
 205               		.loc 1 114 10 view .LVU68
 206 00e4 20E0      		ldi r18,lo8(.LC4)
 207 00e6 30E0      		ldi r19,hi8(.LC4)
 208 00e8 40E0      		ldi r20,0
 209 00ea 61E0      		ldi r22,lo8(1)
 210 00ec 8EE0      		ldi r24,lo8(14)
 211 00ee 0E94 0000 		call Write_String
 115:main.c        **** 							}else
 212               		.loc 1 115 10 view .LVU69
 213 00f2 20E0      		ldi r18,lo8(.LC5)
 214 00f4 30E0      		ldi r19,hi8(.LC5)
 215               	.L10:
 129:main.c        **** 							}
 216               		.loc 1 129 9 is_stmt 0 view .LVU70
 217 00f6 40E0      		ldi r20,0
 218 00f8 62E0      		ldi r22,lo8(2)
 219 00fa 8EE0      		ldi r24,lo8(14)
 220 00fc 0E94 0000 		call Write_String
 101:main.c        **** 		{
 221               		.loc 1 101 3 view .LVU71
 222 0100 8091 0000 		lds r24,state
  99:main.c        **** 	{ 	
 223               		.loc 1 99 2 is_stmt 1 view .LVU72
 101:main.c        **** 		{
 224               		.loc 1 101 3 view .LVU73
 225 0104 8130      		cpi r24,lo8(1)
 226 0106 01F4      		brne .L13
 227               	.L3:
 123:main.c        **** 							{
 228               		.loc 1 123 16 view .LVU74
 123:main.c        **** 							{
 229               		.loc 1 123 18 is_stmt 0 view .LVU75
 230 0108 4B99      		sbic 0x9,3
 231 010a 00C0      		rjmp .L3
 123:main.c        **** 							{
 232               		.loc 1 123 19 discriminator 1 view .LVU76
 233 010c 8091 0000 		lds r24,entprell
 234 0110 8111      		cpse r24,__zero_reg__
 235 0112 00C0      		rjmp .L3
 125:main.c        **** 								entprell=RELOAD_ENTPRELL;
 236               		.loc 1 125 9 is_stmt 1 view .LVU77
 125:main.c        **** 								entprell=RELOAD_ENTPRELL;
 237               		.loc 1 125 14 is_stmt 0 view .LVU78
 238 0114 C092 0000 		sts state,r12
 126:main.c        **** 								Write_String(14,0,0," Button ");
 239               		.loc 1 126 9 is_stmt 1 view .LVU79
 126:main.c        **** 								Write_String(14,0,0," Button ");
 240               		.loc 1 126 17 is_stmt 0 view .LVU80
 241 0118 D092 0000 		sts entprell,r13
 127:main.c        **** 								Write_String(14,1,0,"   to   ");
 242               		.loc 1 127 9 is_stmt 1 view .LVU81
 243 011c 20E0      		ldi r18,lo8(.LC0)
 244 011e 30E0      		ldi r19,hi8(.LC0)
 245 0120 40E0      		ldi r20,0
 246 0122 60E0      		ldi r22,0
 247 0124 8EE0      		ldi r24,lo8(14)
 248 0126 0E94 0000 		call Write_String
 128:main.c        **** 								Write_String(14,2,0, "  ZERO  ");
 249               		.loc 1 128 9 view .LVU82
 250 012a 20E0      		ldi r18,lo8(.LC1)
 251 012c 30E0      		ldi r19,hi8(.LC1)
 252 012e 40E0      		ldi r20,0
 253 0130 61E0      		ldi r22,lo8(1)
 254 0132 8EE0      		ldi r24,lo8(14)
 255 0134 0E94 0000 		call Write_String
 129:main.c        **** 							}
 256               		.loc 1 129 9 view .LVU83
 257 0138 20E0      		ldi r18,lo8(.LC2)
 258 013a 30E0      		ldi r19,hi8(.LC2)
 259 013c 00C0      		rjmp .L10
 260               	.L4:
 132:main.c        **** 							sprintf(buffer,"%f",temp);
 261               		.loc 1 132 18 view .LVU84
 132:main.c        **** 							sprintf(buffer,"%f",temp);
 262               		.loc 1 132 26 is_stmt 0 view .LVU85
 263 013e 80E0      		ldi r24,0
 264 0140 0E94 0000 		call sht21_measure
 132:main.c        **** 							sprintf(buffer,"%f",temp);
 265               		.loc 1 132 23 view .LVU86
 266 0144 9B01      		movw r18,r22
 267 0146 AC01      		movw r20,r24
 268 0148 CB01      		movw r24,r22
 269 014a DA01      		movw r26,r20
 270 014c 8093 0000 		sts temp,r24
 271 0150 9093 0000 		sts temp+1,r25
 272 0154 A093 0000 		sts temp+2,r26
 273 0158 B093 0000 		sts temp+3,r27
 133:main.c        **** 							Write_String(14,0,0,buffer);
 274               		.loc 1 133 8 is_stmt 1 view .LVU87
 275 015c 5F93      		push r21
 276               	.LCFI0:
 277               		.cfi_def_cfa_offset 3
 278 015e 4F93      		push r20
 279               	.LCFI1:
 280               		.cfi_def_cfa_offset 4
 281 0160 3F93      		push r19
 282               	.LCFI2:
 283               		.cfi_def_cfa_offset 5
 284 0162 2F93      		push r18
 285               	.LCFI3:
 286               		.cfi_def_cfa_offset 6
 287 0164 FF92      		push r15
 288               	.LCFI4:
 289               		.cfi_def_cfa_offset 7
 290 0166 EF92      		push r14
 291               	.LCFI5:
 292               		.cfi_def_cfa_offset 8
 293 0168 DF93      		push r29
 294               	.LCFI6:
 295               		.cfi_def_cfa_offset 9
 296 016a CF93      		push r28
 297               	.LCFI7:
 298               		.cfi_def_cfa_offset 10
 299 016c 0E94 0000 		call sprintf
 134:main.c        **** 							
 300               		.loc 1 134 8 view .LVU88
 301 0170 20E0      		ldi r18,lo8(buffer)
 302 0172 30E0      		ldi r19,hi8(buffer)
 303 0174 40E0      		ldi r20,0
 304 0176 60E0      		ldi r22,0
 305 0178 8EE0      		ldi r24,lo8(14)
 306 017a 0E94 0000 		call Write_String
 307               		.loc 1 136 8 view .LVU89
 308 017e 8091 0000 		lds r24,test+1
 309 0182 8F93      		push r24
 310               	.LCFI8:
 311               		.cfi_def_cfa_offset 11
 312 0184 8091 0000 		lds r24,test
 313 0188 8F93      		push r24
 314               	.LCFI9:
 315               		.cfi_def_cfa_offset 12
 316 018a 1F93      		push r17
 317               	.LCFI10:
 318               		.cfi_def_cfa_offset 13
 319 018c 0F93      		push r16
 320               	.LCFI11:
 321               		.cfi_def_cfa_offset 14
 322 018e DF93      		push r29
 323               	.LCFI12:
 324               		.cfi_def_cfa_offset 15
 325 0190 CF93      		push r28
 326               	.LCFI13:
 327               		.cfi_def_cfa_offset 16
 328 0192 0E94 0000 		call sprintf
 137:main.c        **** 							Write_String(14,1,0,buffer);
 329               		.loc 1 137 8 view .LVU90
 330 0196 20E0      		ldi r18,lo8(buffer)
 331 0198 30E0      		ldi r19,hi8(buffer)
 332 019a 40E0      		ldi r20,0
 333 019c 61E0      		ldi r22,lo8(1)
 334 019e 8EE0      		ldi r24,lo8(14)
 335 01a0 0E94 0000 		call Write_String
 138:main.c        **** 							test++;
 336               		.loc 1 138 8 view .LVU91
 337               		.loc 1 138 12 is_stmt 0 view .LVU92
 338 01a4 8091 0000 		lds r24,test
 339 01a8 9091 0000 		lds r25,test+1
 340 01ac 0196      		adiw r24,1
 341 01ae 9093 0000 		sts test+1,r25
 342 01b2 8093 0000 		sts test,r24
 139:main.c        **** 							
 140:main.c        **** 							break;
 343               		.loc 1 140 8 is_stmt 1 view .LVU93
 101:main.c        **** 		{
 344               		.loc 1 101 3 is_stmt 0 view .LVU94
 345 01b6 8091 0000 		lds r24,state
 346               		.loc 1 140 8 view .LVU95
 347 01ba 2DB7      		in r18,__SP_L__
 348 01bc 3EB7      		in r19,__SP_H__
 349 01be 225F      		subi r18,-14
 350 01c0 3F4F      		sbci r19,-1
 351 01c2 0FB6      		in __tmp_reg__,__SREG__
 352 01c4 F894      		cli
 353 01c6 3EBF      		out __SP_H__,r19
 354 01c8 0FBE      		out __SREG__,__tmp_reg__
 355 01ca 2DBF      		out __SP_L__,r18
 356               	.LCFI14:
 357               		.cfi_def_cfa_offset 2
 358 01cc 00C0      		rjmp .L5
 359               	.L7:
 118:main.c        **** 									Write_String(14,1,0,"@mailbox");
 360               		.loc 1 118 10 is_stmt 1 view .LVU96
 361 01ce 20E0      		ldi r18,lo8(.LC6)
 362 01d0 30E0      		ldi r19,hi8(.LC6)
 363 01d2 40E0      		ldi r20,0
 364 01d4 60E0      		ldi r22,0
 365 01d6 8EE0      		ldi r24,lo8(14)
 366 01d8 0E94 0000 		call Write_String
 119:main.c        **** 									Write_String(14,2,0, ".org    ");	
 367               		.loc 1 119 10 view .LVU97
 368 01dc 20E0      		ldi r18,lo8(.LC7)
 369 01de 30E0      		ldi r19,hi8(.LC7)
 370 01e0 40E0      		ldi r20,0
 371 01e2 61E0      		ldi r22,lo8(1)
 372 01e4 8EE0      		ldi r24,lo8(14)
 373 01e6 0E94 0000 		call Write_String
 120:main.c        **** 							}
 374               		.loc 1 120 10 view .LVU98
 375 01ea 20E0      		ldi r18,lo8(.LC8)
 376 01ec 30E0      		ldi r19,hi8(.LC8)
 377 01ee 00C0      		rjmp .L10
 378               	.L12:
 105:main.c        **** 								entprell=RELOAD_ENTPRELL;
 379               		.loc 1 105 9 view .LVU99
 105:main.c        **** 								entprell=RELOAD_ENTPRELL;
 380               		.loc 1 105 14 is_stmt 0 view .LVU100
 381 01f0 81E0      		ldi r24,lo8(1)
 382 01f2 8093 0000 		sts state,r24
 106:main.c        **** 								Write_String(14,0,0," Button ");
 383               		.loc 1 106 9 is_stmt 1 view .LVU101
 106:main.c        **** 								Write_String(14,0,0," Button ");
 384               		.loc 1 106 17 is_stmt 0 view .LVU102
 385 01f6 D092 0000 		sts entprell,r13
 107:main.c        **** 								Write_String(14,1,0,"   to   ");
 386               		.loc 1 107 9 is_stmt 1 view .LVU103
 387 01fa 20E0      		ldi r18,lo8(.LC0)
 388 01fc 30E0      		ldi r19,hi8(.LC0)
 389 01fe 40E0      		ldi r20,0
 390 0200 60E0      		ldi r22,0
 391 0202 8EE0      		ldi r24,lo8(14)
 392 0204 0E94 0000 		call Write_String
 108:main.c        **** 								Write_String(14,2,0, "  ZERO  ");
 393               		.loc 1 108 9 view .LVU104
 394 0208 20E0      		ldi r18,lo8(.LC1)
 395 020a 30E0      		ldi r19,hi8(.LC1)
 396 020c 40E0      		ldi r20,0
 397 020e 61E0      		ldi r22,lo8(1)
 398 0210 8EE0      		ldi r24,lo8(14)
 399 0212 0E94 0000 		call Write_String
 109:main.c        **** 							}
 400               		.loc 1 109 9 view .LVU105
 401 0216 20E0      		ldi r18,lo8(.LC2)
 402 0218 30E0      		ldi r19,hi8(.LC2)
 403 021a 40E0      		ldi r20,0
 404 021c 62E0      		ldi r22,lo8(2)
 405 021e 8EE0      		ldi r24,lo8(14)
 406 0220 0E94 0000 		call Write_String
 407 0224 00C0      		rjmp .L6
 408               		.cfi_endproc
 409               	.LFE12:
 411               		.text
 412               	.global	__vector_11
 414               	__vector_11:
 415               	.LFB13:
 141:main.c        **** 		}//End of switch(state)	
 142:main.c        **** 			
 143:main.c        **** 		
 144:main.c        **** 		//sprintf(buffer,"sec=%d",test);
 145:main.c        **** 		//Write_String(14,1,0,buffer);
 146:main.c        **** 	} //end while
 147:main.c        **** }//end of main
 148:main.c        **** 
 149:main.c        **** 
 150:main.c        **** ISR (TIMER1_COMPA_vect)
 151:main.c        **** {
 416               		.loc 1 151 1 view -0
 417               		.cfi_startproc
 418 0000 1F92 1FB6 		__gcc_isr 1
 418      1F92 1124 
 418      8F93 
 419               	/* prologue: Signal */
 420               	/* frame size = 0 */
 421               	/* stack size = 0...4 */
 422               	.L__stack_usage = 0 + __gcc_isr.n_pushed
 152:main.c        **** 	
 153:main.c        **** 		ms10++;
 423               		.loc 1 153 3 view .LVU107
 424               		.loc 1 153 7 is_stmt 0 view .LVU108
 425 000a 8091 0000 		lds r24,ms10
 426 000e 8F5F      		subi r24,lo8(-(1))
 427 0010 8093 0000 		sts ms10,r24
 154:main.c        **** 		if(entprell)entprell--;
 428               		.loc 1 154 3 is_stmt 1 view .LVU109
 429               		.loc 1 154 6 is_stmt 0 view .LVU110
 430 0014 8091 0000 		lds r24,entprell
 431               		.loc 1 154 5 view .LVU111
 432 0018 8823      		tst r24
 433 001a 01F0      		breq .L15
 434               		.loc 1 154 15 is_stmt 1 discriminator 1 view .LVU112
 435               		.loc 1 154 23 is_stmt 0 discriminator 1 view .LVU113
 436 001c 8091 0000 		lds r24,entprell
 437 0020 8150      		subi r24,lo8(-(-1))
 438 0022 8093 0000 		sts entprell,r24
 439               	.L15:
 155:main.c        **** 			
 156:main.c        **** 	if(ms10==10)	//100ms
 440               		.loc 1 156 2 is_stmt 1 view .LVU114
 441               		.loc 1 156 9 is_stmt 0 view .LVU115
 442 0026 8091 0000 		lds r24,ms10
 443               		.loc 1 156 4 view .LVU116
 444 002a 8A30      		cpi r24,lo8(10)
 445 002c 01F4      		brne .L16
 157:main.c        **** 	{
 158:main.c        **** 		ms10=0;
 446               		.loc 1 158 3 is_stmt 1 view .LVU117
 447               		.loc 1 158 7 is_stmt 0 view .LVU118
 448 002e 1092 0000 		sts ms10,__zero_reg__
 159:main.c        **** 		ms100++;
 449               		.loc 1 159 3 is_stmt 1 view .LVU119
 450               		.loc 1 159 8 is_stmt 0 view .LVU120
 451 0032 8091 0000 		lds r24,ms100
 452 0036 8F5F      		subi r24,lo8(-(1))
 453 0038 8093 0000 		sts ms100,r24
 454               	.L16:
 160:main.c        **** 	
 161:main.c        **** 		
 162:main.c        **** 	}
 163:main.c        ****     if(ms100==10)	//sec
 455               		.loc 1 163 5 is_stmt 1 view .LVU121
 456               		.loc 1 163 13 is_stmt 0 view .LVU122
 457 003c 8091 0000 		lds r24,ms100
 458               		.loc 1 163 7 view .LVU123
 459 0040 8A30      		cpi r24,lo8(10)
 460 0042 01F0      		breq .L25
 461               	.L18:
 164:main.c        **** 	{
 165:main.c        **** 		ms100=0;
 166:main.c        **** 		sec++;
 167:main.c        **** 		//change display screen in fixed time
 168:main.c        **** 		screentoggle++;
 169:main.c        **** 		if(screentoggle==TOGGLEMAX)
 170:main.c        **** 		{
 171:main.c        **** 			screentoggle=0;
 172:main.c        **** 			if(toggle==0)
 173:main.c        **** 			{
 174:main.c        **** 				toggle = 1;
 175:main.c        **** 			}else toggle =0;
 176:main.c        **** 		}
 177:main.c        **** 	}
 178:main.c        **** 	if(sec==60)	//Minute
 462               		.loc 1 178 2 is_stmt 1 view .LVU124
 463               		.loc 1 178 8 is_stmt 0 view .LVU125
 464 0044 8091 0000 		lds r24,sec
 465               		.loc 1 178 4 view .LVU126
 466 0048 8C33      		cpi r24,lo8(60)
 467 004a 01F4      		brne .L14
 179:main.c        **** 	{
 180:main.c        **** 		sec=0;
 468               		.loc 1 180 3 is_stmt 1 view .LVU127
 469               		.loc 1 180 6 is_stmt 0 view .LVU128
 470 004c 1092 0000 		sts sec,__zero_reg__
 181:main.c        **** 		min++;
 471               		.loc 1 181 3 is_stmt 1 view .LVU129
 472               		.loc 1 181 6 is_stmt 0 view .LVU130
 473 0050 8091 0000 		lds r24,min
 474 0054 8F5F      		subi r24,lo8(-(1))
 475 0056 8093 0000 		sts min,r24
 476               	.L14:
 477               	/* epilogue start */
 182:main.c        **** 	}
 183:main.c        **** }
 478               		.loc 1 183 1 view .LVU131
 479 005a 8F91 1F90 		__gcc_isr 2
 479      1FBE 1F90 
 480 0062 1895      		reti
 481               	.L25:
 165:main.c        **** 		sec++;
 482               		.loc 1 165 3 is_stmt 1 view .LVU132
 165:main.c        **** 		sec++;
 483               		.loc 1 165 8 is_stmt 0 view .LVU133
 484 0064 1092 0000 		sts ms100,__zero_reg__
 166:main.c        **** 		//change display screen in fixed time
 485               		.loc 1 166 3 is_stmt 1 view .LVU134
 166:main.c        **** 		//change display screen in fixed time
 486               		.loc 1 166 6 is_stmt 0 view .LVU135
 487 0068 8091 0000 		lds r24,sec
 488 006c 8F5F      		subi r24,lo8(-(1))
 489 006e 8093 0000 		sts sec,r24
 168:main.c        **** 		if(screentoggle==TOGGLEMAX)
 490               		.loc 1 168 3 is_stmt 1 view .LVU136
 168:main.c        **** 		if(screentoggle==TOGGLEMAX)
 491               		.loc 1 168 15 is_stmt 0 view .LVU137
 492 0072 8091 0000 		lds r24,screentoggle
 493 0076 8F5F      		subi r24,lo8(-(1))
 494 0078 8093 0000 		sts screentoggle,r24
 169:main.c        **** 		{
 495               		.loc 1 169 3 is_stmt 1 view .LVU138
 169:main.c        **** 		{
 496               		.loc 1 169 18 is_stmt 0 view .LVU139
 497 007c 8091 0000 		lds r24,screentoggle
 169:main.c        **** 		{
 498               		.loc 1 169 5 view .LVU140
 499 0080 8430      		cpi r24,lo8(4)
 500 0082 01F4      		brne .L18
 171:main.c        **** 			if(toggle==0)
 501               		.loc 1 171 4 is_stmt 1 view .LVU141
 171:main.c        **** 			if(toggle==0)
 502               		.loc 1 171 16 is_stmt 0 view .LVU142
 503 0084 1092 0000 		sts screentoggle,__zero_reg__
 172:main.c        **** 			{
 504               		.loc 1 172 4 is_stmt 1 view .LVU143
 172:main.c        **** 			{
 505               		.loc 1 172 13 is_stmt 0 view .LVU144
 506 0088 8091 0000 		lds r24,toggle
 172:main.c        **** 			{
 507               		.loc 1 172 6 view .LVU145
 508 008c 8111      		cpse r24,__zero_reg__
 509 008e 00C0      		rjmp .L20
 174:main.c        **** 			}else toggle =0;
 510               		.loc 1 174 5 is_stmt 1 view .LVU146
 174:main.c        **** 			}else toggle =0;
 511               		.loc 1 174 12 is_stmt 0 view .LVU147
 512 0090 81E0      		ldi r24,lo8(1)
 513 0092 8093 0000 		sts toggle,r24
 514 0096 00C0      		rjmp .L18
 515               	.L20:
 175:main.c        **** 		}
 516               		.loc 1 175 10 is_stmt 1 view .LVU148
 175:main.c        **** 		}
 517               		.loc 1 175 17 is_stmt 0 view .LVU149
 518 0098 1092 0000 		sts toggle,__zero_reg__
 519 009c 00C0      		rjmp .L18
 520               		__gcc_isr 0,r24
 521               		.cfi_endproc
 522               	.LFE13:
 524               	.global	buffer
 525               		.section .bss
 528               	buffer:
 529 0000 0000 0000 		.zero	20
 529      0000 0000 
 529      0000 0000 
 529      0000 0000 
 529      0000 0000 
 530               	.global	toggle_alt
 533               	toggle_alt:
 534 0014 00        		.zero	1
 535               	.global	toggle
 538               	toggle:
 539 0015 00        		.zero	1
 540               	.global	screentoggle
 543               	screentoggle:
 544 0016 00        		.zero	1
 545               	.global	entprell
 548               	entprell:
 549 0017 00        		.zero	1
 550               	.global	min
 553               	min:
 554 0018 00        		.zero	1
 555               	.global	sec
 558               	sec:
 559 0019 00        		.zero	1
 560               	.global	ms100
 563               	ms100:
 564 001a 00        		.zero	1
 565               	.global	ms10
 568               	ms10:
 569 001b 00        		.zero	1
 570               	.global	state
 573               	state:
 574 001c 00        		.zero	1
 575               	.global	roman
 578               	roman:
 579 001d 0000      		.zero	2
 580               	.global	test
 583               	test:
 584 001f 0000      		.zero	2
 585               	.global	temp
 588               	temp:
 589 0021 0000 0000 		.zero	4
 590               	.global	font14
 591               		.section	.progmem.data,"a",@progbits
 594               	font14:
 595 0000 00        		.string	""
 596 0001 00        		.string	""
 597 0002 00        		.string	""
 598 0003 00        		.string	""
 599 0004 00        		.string	""
 600 0005 00        		.string	""
 601 0006 00        		.string	""
 602 0007 00        		.string	""
 603 0008 00        		.string	""
 604 0009 00        		.string	""
 605 000a 00        		.string	""
 606 000b 00        		.string	""
 607 000c 00        		.string	""
 608 000d 00        		.string	""
 609 000e 00        		.string	""
 610 000f 1010 1010 		.string	"\020\020\020\020\020\020\020"
 610      1010 1000 
 611 0017 1010 00   		.string	"\020\020"
 612 001a 00        		.string	""
 613 001b 00        		.string	""
 614 001c 2424 2424 		.string	"$$$$"
 614      00
 615 0021 00        		.string	""
 616 0022 00        		.string	""
 617 0023 00        		.string	""
 618 0024 00        		.string	""
 619 0025 00        		.string	""
 620 0026 00        		.string	""
 621 0027 00        		.string	""
 622 0028 00        		.string	""
 623 0029 00        		.string	""
 624 002a 00        		.string	""
 625 002b 0909 127F 		.string	"\t\t\022\177\022$\377$HH"
 625      1224 FF24 
 625      4848 00
 626 0036 00        		.string	""
 627 0037 00        		.string	""
 628 0038 103C 5050 		.string	"\020<PPP0\030\024\024\024x\020"
 628      5030 1814 
 628      1414 7810 
 628      00
 629 0045 00        		.string	""
 630 0046 00        		.string	""
 631 0047 6192 9494 		.string	"a\222\224\224h\026))I\206"
 631      6816 2929 
 631      4986 00
 632 0052 00        		.string	""
 633 0053 00        		.string	""
 634 0054 00        		.string	""
 635 0055 1824 2428 		.string	"\030$$(0\321\211\216\306\177"
 635      30D1 898E 
 635      C67F 00
 636 0060 00        		.string	""
 637 0061 00        		.string	""
 638 0062 1010 1010 		.string	"\020\020\020\020"
 638      00
 639 0067 00        		.string	""
 640 0068 00        		.string	""
 641 0069 00        		.string	""
 642 006a 00        		.string	""
 643 006b 00        		.string	""
 644 006c 00        		.string	""
 645 006d 00        		.string	""
 646 006e 00        		.string	""
 647 006f 00        		.string	""
 648 0070 060C 1010 		.string	"\006\f\020\020     \020\020\f\006"
 648      2020 2020 
 648      2010 100C 
 648      0600 
 649 007e 6030 0808 		.string	"`0\b\b\004\004\004\004\004\b\b0`"
 649      0404 0404 
 649      0408 0830 
 649      6000 
 650 008c 00        		.string	""
 651 008d 1028 1000 		.string	"\020(\020"
 652 0091 00        		.string	""
 653 0092 00        		.string	""
 654 0093 00        		.string	""
 655 0094 00        		.string	""
 656 0095 00        		.string	""
 657 0096 00        		.string	""
 658 0097 00        		.string	""
 659 0098 00        		.string	""
 660 0099 00        		.string	""
 661 009a 00        		.string	""
 662 009b 00        		.string	""
 663 009c 00        		.string	""
 664 009d 00        		.string	""
 665 009e 1010 10FE 		.string	"\020\020\020\376\020\020\020"
 665      1010 1000 
 666 00a6 00        		.string	""
 667 00a7 00        		.string	""
 668 00a8 00        		.string	""
 669 00a9 00        		.string	""
 670 00aa 00        		.string	""
 671 00ab 00        		.string	""
 672 00ac 00        		.string	""
 673 00ad 00        		.string	""
 674 00ae 00        		.string	""
 675 00af 00        		.string	""
 676 00b0 00        		.string	""
 677 00b1 1818 0810 		.string	"\030\030\b\020"
 677      00
 678 00b6 00        		.string	""
 679 00b7 00        		.string	""
 680 00b8 00        		.string	""
 681 00b9 00        		.string	""
 682 00ba 00        		.string	""
 683 00bb 00        		.string	""
 684 00bc 7E00      		.string	"~"
 685 00be 00        		.string	""
 686 00bf 00        		.string	""
 687 00c0 00        		.string	""
 688 00c1 00        		.string	""
 689 00c2 00        		.string	""
 690 00c3 00        		.string	""
 691 00c4 00        		.string	""
 692 00c5 00        		.string	""
 693 00c6 00        		.string	""
 694 00c7 00        		.string	""
 695 00c8 00        		.string	""
 696 00c9 00        		.string	""
 697 00ca 00        		.string	""
 698 00cb 00        		.string	""
 699 00cc 00        		.string	""
 700 00cd 1818 00   		.string	"\030\030"
 701 00d0 00        		.string	""
 702 00d1 00        		.string	""
 703 00d2 0204 0404 		.string	"\002\004\004\004\b\b\030\020\020   @"
 703      0808 1810 
 703      1020 2020 
 703      4000 
 704 00e0 00        		.string	""
 705 00e1 1824 4242 		.string	"\030$BBBBBB$\030"
 705      4242 4242 
 705      2418 00
 706 00ec 00        		.string	""
 707 00ed 00        		.string	""
 708 00ee 00        		.string	""
 709 00ef 0878 0808 		.string	"\bx\b\b\b\b\b\b\b\177"
 709      0808 0808 
 709      087F 00
 710 00fa 00        		.string	""
 711 00fb 00        		.string	""
 712 00fc 00        		.string	""
 713 00fd 7804 0404 		.string	"x\004\004\004\b\b\020 @|"
 713      0808 1020 
 713      407C 00
 714 0108 00        		.string	""
 715 0109 00        		.string	""
 716 010a 00        		.string	""
 717 010b 3C02 0202 		.string	"<\002\002\002\034\002\002\002\002<"
 717      1C02 0202 
 717      023C 00
 718 0116 00        		.string	""
 719 0117 00        		.string	""
 720 0118 00        		.string	""
 721 0119 040C 1414 		.string	"\004\f\024\024$D~\004\004\004"
 721      2444 7E04 
 721      0404 00
 722 0124 00        		.string	""
 723 0125 00        		.string	""
 724 0126 00        		.string	""
 725 0127 3E20 2020 		.string	">   8\006\002\002\002<"
 725      3806 0202 
 725      023C 00
 726 0132 00        		.string	""
 727 0133 00        		.string	""
 728 0134 00        		.string	""
 729 0135 1C20 4040 		.string	"\034 @@\\bBB\"\034"
 729      5C62 4242 
 729      221C 00
 730 0140 00        		.string	""
 731 0141 00        		.string	""
 732 0142 00        		.string	""
 733 0143 7E02 0404 		.string	"~\002\004\004\b\020\020\020  "
 733      0810 1010 
 733      2020 00
 734 014e 00        		.string	""
 735 014f 00        		.string	""
 736 0150 00        		.string	""
 737 0151 3C42 4244 		.string	"<BBD8$BBB<"
 737      3824 4242 
 737      423C 00
 738 015c 00        		.string	""
 739 015d 00        		.string	""
 740 015e 00        		.string	""
 741 015f 3844 4242 		.string	"8DBBF:\002\002\0048"
 741      463A 0202 
 741      0438 00
 742 016a 00        		.string	""
 743 016b 00        		.string	""
 744 016c 00        		.string	""
 745 016d 00        		.string	""
 746 016e 00        		.string	""
 747 016f 00        		.string	""
 748 0170 1818 00   		.string	"\030\030"
 749 0173 00        		.string	""
 750 0174 00        		.string	""
 751 0175 1818 00   		.string	"\030\030"
 752 0178 00        		.string	""
 753 0179 00        		.string	""
 754 017a 00        		.string	""
 755 017b 00        		.string	""
 756 017c 00        		.string	""
 757 017d 00        		.string	""
 758 017e 1818 00   		.string	"\030\030"
 759 0181 00        		.string	""
 760 0182 00        		.string	""
 761 0183 1818 0810 		.string	"\030\030\b\020"
 761      00
 762 0188 00        		.string	""
 763 0189 00        		.string	""
 764 018a 00        		.string	""
 765 018b 00        		.string	""
 766 018c 020C 1060 		.string	"\002\f\020`\020\f\002"
 766      100C 0200 
 767 0194 00        		.string	""
 768 0195 00        		.string	""
 769 0196 00        		.string	""
 770 0197 00        		.string	""
 771 0198 00        		.string	""
 772 0199 00        		.string	""
 773 019a 00        		.string	""
 774 019b 7E00      		.string	"~"
 775 019d 00        		.string	""
 776 019e 7E00      		.string	"~"
 777 01a0 00        		.string	""
 778 01a1 00        		.string	""
 779 01a2 00        		.string	""
 780 01a3 00        		.string	""
 781 01a4 00        		.string	""
 782 01a5 00        		.string	""
 783 01a6 00        		.string	""
 784 01a7 00        		.string	""
 785 01a8 4030 0806 		.string	"@0\b\006\b0@"
 785      0830 4000 
 786 01b0 00        		.string	""
 787 01b1 00        		.string	""
 788 01b2 00        		.string	""
 789 01b3 7C42 0204 		.string	"|B\002\004\b\020\020"
 789      0810 1000 
 790 01bb 1010 00   		.string	"\020\020"
 791 01be 00        		.string	""
 792 01bf 00        		.string	""
 793 01c0 00        		.string	""
 794 01c1 3C62 4E92 		.string	"<bN\222\222\222\226\333D<"
 794      9292 96DB 
 794      443C 00
 795 01cc 00        		.string	""
 796 01cd 00        		.string	""
 797 01ce 00        		.string	""
 798 01cf 00        		.string	""
 799 01d0 0818 1424 		.string	"\b\030\024$$B~B\201"
 799      2442 7E42 
 799      8100 
 800 01da 00        		.string	""
 801 01db 00        		.string	""
 802 01dc 00        		.string	""
 803 01dd 00        		.string	""
 804 01de 7C42 4244 		.string	"|BBDxDBB|"
 804      7844 4242 
 804      7C00 
 805 01e8 00        		.string	""
 806 01e9 00        		.string	""
 807 01ea 00        		.string	""
 808 01eb 00        		.string	""
 809 01ec 3E40 8080 		.string	">@\200\200\200\200\200@>"
 809      8080 8040 
 809      3E00 
 810 01f6 00        		.string	""
 811 01f7 00        		.string	""
 812 01f8 00        		.string	""
 813 01f9 00        		.string	""
 814 01fa F884 8282 		.string	"\370\204\202\202\202\202\202\204\370"
 814      8282 8284 
 814      F800 
 815 0204 00        		.string	""
 816 0205 00        		.string	""
 817 0206 00        		.string	""
 818 0207 00        		.string	""
 819 0208 7E40 4040 		.string	"~@@@|@@@~"
 819      7C40 4040 
 819      7E00 
 820 0212 00        		.string	""
 821 0213 00        		.string	""
 822 0214 00        		.string	""
 823 0215 00        		.string	""
 824 0216 7E40 4040 		.string	"~@@@|@@@@"
 824      7C40 4040 
 824      4000 
 825 0220 00        		.string	""
 826 0221 00        		.string	""
 827 0222 00        		.string	""
 828 0223 00        		.string	""
 829 0224 3E40 8080 		.string	">@\200\200\200\216\202B>"
 829      808E 8242 
 829      3E00 
 830 022e 00        		.string	""
 831 022f 00        		.string	""
 832 0230 00        		.string	""
 833 0231 00        		.string	""
 834 0232 4242 4242 		.string	"BBBB~BBBB"
 834      7E42 4242 
 834      4200 
 835 023c 00        		.string	""
 836 023d 00        		.string	""
 837 023e 00        		.string	""
 838 023f 00        		.string	""
 839 0240 7C10 1010 		.string	"|\020\020\020\020\020\020\020|"
 839      1010 1010 
 839      7C00 
 840 024a 00        		.string	""
 841 024b 00        		.string	""
 842 024c 00        		.string	""
 843 024d 00        		.string	""
 844 024e 3C04 0404 		.string	"<\004\004\004\004\004\004\004x"
 844      0404 0404 
 844      7800 
 845 0258 00        		.string	""
 846 0259 00        		.string	""
 847 025a 00        		.string	""
 848 025b 00        		.string	""
 849 025c 4244 4850 		.string	"BDHP`PHDB"
 849      6050 4844 
 849      4200 
 850 0266 00        		.string	""
 851 0267 00        		.string	""
 852 0268 00        		.string	""
 853 0269 00        		.string	""
 854 026a 4040 4040 		.string	"@@@@@@@@~"
 854      4040 4040 
 854      7E00 
 855 0274 00        		.string	""
 856 0275 00        		.string	""
 857 0276 00        		.string	""
 858 0277 00        		.string	""
 859 0278 C6C6 C6AA 		.string	"\306\306\306\252\252\252\222\202\202"
 859      AAAA 9282 
 859      8200 
 860 0282 00        		.string	""
 861 0283 00        		.string	""
 862 0284 00        		.string	""
 863 0285 00        		.string	""
 864 0286 4262 6252 		.string	"BbbRRJJFB"
 864      524A 4A46 
 864      4200 
 865 0290 00        		.string	""
 866 0291 00        		.string	""
 867 0292 00        		.string	""
 868 0293 00        		.string	""
 869 0294 3844 8282 		.string	"8D\202\202\202\202\202D8"
 869      8282 8244 
 869      3800 
 870 029e 00        		.string	""
 871 029f 00        		.string	""
 872 02a0 00        		.string	""
 873 02a1 00        		.string	""
 874 02a2 7C42 4242 		.string	"|BBBFx@@@"
 874      4678 4040 
 874      4000 
 875 02ac 00        		.string	""
 876 02ad 00        		.string	""
 877 02ae 00        		.string	""
 878 02af 00        		.string	""
 879 02b0 3844 8282 		.string	"8D\202\202\202\202\202D8\006\003"
 879      8282 8244 
 879      3806 0300 
 880 02bc 00        		.string	""
 881 02bd 00        		.string	""
 882 02be 7844 4444 		.string	"xDDDxHLDB"
 882      7848 4C44 
 882      4200 
 883 02c8 00        		.string	""
 884 02c9 00        		.string	""
 885 02ca 00        		.string	""
 886 02cb 00        		.string	""
 887 02cc 3E40 4060 		.string	">@@`\030\006\002\002|"
 887      1806 0202 
 887      7C00 
 888 02d6 00        		.string	""
 889 02d7 00        		.string	""
 890 02d8 00        		.string	""
 891 02d9 00        		.string	""
 892 02da FE10 1010 		.string	"\376\020\020\020\020\020\020\020\020"
 892      1010 1010 
 892      1000 
 893 02e4 00        		.string	""
 894 02e5 00        		.string	""
 895 02e6 00        		.string	""
 896 02e7 00        		.string	""
 897 02e8 4242 4242 		.string	"BBBBBBBB<"
 897      4242 4242 
 897      3C00 
 898 02f2 00        		.string	""
 899 02f3 00        		.string	""
 900 02f4 00        		.string	""
 901 02f5 00        		.string	""
 902 02f6 8142 4244 		.string	"\201BBD$((\020\020"
 902      2428 2810 
 902      1000 
 903 0300 00        		.string	""
 904 0301 00        		.string	""
 905 0302 00        		.string	""
 906 0303 00        		.string	""
 907 0304 8181 939A 		.string	"\201\201\223\232ZZff$"
 907      5A5A 6666 
 907      2400 
 908 030e 00        		.string	""
 909 030f 00        		.string	""
 910 0310 00        		.string	""
 911 0311 00        		.string	""
 912 0312 8142 2418 		.string	"\201B$\030\030\030$B\201"
 912      1818 2442 
 912      8100 
 913 031c 00        		.string	""
 914 031d 00        		.string	""
 915 031e 00        		.string	""
 916 031f 00        		.string	""
 917 0320 8142 4428 		.string	"\201BD(\030\020\020\020\020"
 917      1810 1010 
 917      1000 
 918 032a 00        		.string	""
 919 032b 00        		.string	""
 920 032c 00        		.string	""
 921 032d 00        		.string	""
 922 032e FE02 0408 		.string	"\376\002\004\b\020 @\200\376"
 922      1020 4080 
 922      FE00 
 923 0338 00        		.string	""
 924 0339 00        		.string	""
 925 033a 1E10 1010 		.string	"\036\020\020\020\020\020\020\020\020\020\020\020\036"
 925      1010 1010 
 925      1010 1010 
 925      1E00 
 926 0348 4020 2020 		.string	"@   \020\020\030\b\b\004\004\004\002"
 926      1010 1808 
 926      0804 0404 
 926      0200 
 927 0356 7808 0808 		.string	"x\b\b\b\b\b\b\b\b\b\b\bx"
 927      0808 0808 
 927      0808 0808 
 927      7800 
 928 0364 00        		.string	""
 929 0365 0808 1814 		.string	"\b\b\030\024\024$\"B"
 929      1424 2242 
 929      00
 930 036e 00        		.string	""
 931 036f 00        		.string	""
 932 0370 00        		.string	""
 933 0371 00        		.string	""
 934 0372 00        		.string	""
 935 0373 00        		.string	""
 936 0374 00        		.string	""
 937 0375 00        		.string	""
 938 0376 00        		.string	""
 939 0377 00        		.string	""
 940 0378 00        		.string	""
 941 0379 00        		.string	""
 942 037a 00        		.string	""
 943 037b 00        		.string	""
 944 037c 00        		.string	""
 945 037d FF00      		.string	"\377"
 946 037f 00        		.string	""
 947 0380 0804 00   		.string	"\b\004"
 948 0383 00        		.string	""
 949 0384 00        		.string	""
 950 0385 00        		.string	""
 951 0386 00        		.string	""
 952 0387 00        		.string	""
 953 0388 00        		.string	""
 954 0389 00        		.string	""
 955 038a 00        		.string	""
 956 038b 00        		.string	""
 957 038c 00        		.string	""
 958 038d 00        		.string	""
 959 038e 00        		.string	""
 960 038f 00        		.string	""
 961 0390 00        		.string	""
 962 0391 00        		.string	""
 963 0392 3C02 023E 		.string	"<\002\002>BB?"
 963      4242 3F00 
 964 039a 00        		.string	""
 965 039b 00        		.string	""
 966 039c 4040 4040 		.string	"@@@@\\bBBBb\\"
 966      5C62 4242 
 966      4262 5C00 
 967 03a8 00        		.string	""
 968 03a9 00        		.string	""
 969 03aa 00        		.string	""
 970 03ab 00        		.string	""
 971 03ac 00        		.string	""
 972 03ad 00        		.string	""
 973 03ae 1E20 4040 		.string	"\036 @@@ \036"
 973      4020 1E00 
 974 03b6 00        		.string	""
 975 03b7 00        		.string	""
 976 03b8 0202 0202 		.string	"\002\002\002\002:FBBBF:"
 976      3A46 4242 
 976      4246 3A00 
 977 03c4 00        		.string	""
 978 03c5 00        		.string	""
 979 03c6 00        		.string	""
 980 03c7 00        		.string	""
 981 03c8 00        		.string	""
 982 03c9 00        		.string	""
 983 03ca 3C22 427E 		.string	"<\"B~@@>"
 983      4040 3E00 
 984 03d2 00        		.string	""
 985 03d3 00        		.string	""
 986 03d4 0E10 1010 		.string	"\016\020\020\020~\020\020\020\020\020\020"
 986      7E10 1010 
 986      1010 1000 
 987 03e0 00        		.string	""
 988 03e1 00        		.string	""
 989 03e2 00        		.string	""
 990 03e3 00        		.string	""
 991 03e4 00        		.string	""
 992 03e5 00        		.string	""
 993 03e6 3E46 4242 		.string	">FBBBF:\002\002<@@@@\\bBBBBB"
 993      4246 3A02 
 993      023C 4040 
 993      4040 5C62 
 993      4242 4242 
 994 03fc 00        		.string	""
 995 03fd 00        		.string	""
 996 03fe 1818 00   		.string	"\030\030"
 997 0401 00        		.string	""
 998 0402 7808 0808 		.string	"x\b\b\b\b\b\b"
 998      0808 0800 
 999 040a 00        		.string	""
 1000 040b 00        		.string	""
 1001 040c 0C0C 00   		.string	"\f\f"
 1002 040f 00        		.string	""
 1003 0410 3C04 0404 		.string	"<\004\004\004\004\004\004\004\004x@@@@DHP`XDB"
 1003      0404 0404 
 1003      0478 4040 
 1003      4040 4448 
 1003      5060 5844 
 1004 0426 00        		.string	""
 1005 0427 00        		.string	""
 1006 0428 7808 0808 		.string	"x\b\b\b\b\b\b\b\b\b\b"
 1006      0808 0808 
 1006      0808 0800 
 1007 0434 00        		.string	""
 1008 0435 00        		.string	""
 1009 0436 00        		.string	""
 1010 0437 00        		.string	""
 1011 0438 00        		.string	""
 1012 0439 00        		.string	""
 1013 043a B6DA 9292 		.string	"\266\332\222\222\222\222\222"
 1013      9292 9200 
 1014 0442 00        		.string	""
 1015 0443 00        		.string	""
 1016 0444 00        		.string	""
 1017 0445 00        		.string	""
 1018 0446 00        		.string	""
 1019 0447 00        		.string	""
 1020 0448 5C62 4242 		.string	"\\bBBBBB"
 1020      4242 4200 
 1021 0450 00        		.string	""
 1022 0451 00        		.string	""
 1023 0452 00        		.string	""
 1024 0453 00        		.string	""
 1025 0454 00        		.string	""
 1026 0455 00        		.string	""
 1027 0456 3844 8282 		.string	"8D\202\202\202D8"
 1027      8244 3800 
 1028 045e 00        		.string	""
 1029 045f 00        		.string	""
 1030 0460 00        		.string	""
 1031 0461 00        		.string	""
 1032 0462 00        		.string	""
 1033 0463 00        		.string	""
 1034 0464 5C62 4242 		.string	"\\bBBBb\\@@@"
 1034      4262 5C40 
 1034      4040 00
 1035 046f 00        		.string	""
 1036 0470 00        		.string	""
 1037 0471 00        		.string	""
 1038 0472 3A46 4242 		.string	":FBBBF:\002\002\002"
 1038      4246 3A02 
 1038      0202 00
 1039 047d 00        		.string	""
 1040 047e 00        		.string	""
 1041 047f 00        		.string	""
 1042 0480 5C64 4040 		.string	"\\d@@@@@"
 1042      4040 4000 
 1043 0488 00        		.string	""
 1044 0489 00        		.string	""
 1045 048a 00        		.string	""
 1046 048b 00        		.string	""
 1047 048c 00        		.string	""
 1048 048d 00        		.string	""
 1049 048e 3C40 6018 		.string	"<@`\030\004\004x"
 1049      0404 7800 
 1050 0496 00        		.string	""
 1051 0497 00        		.string	""
 1052 0498 00        		.string	""
 1053 0499 00        		.string	""
 1054 049a 2020 FE20 		.string	"  \376     \036"
 1054      2020 2020 
 1054      1E00 
 1055 04a4 00        		.string	""
 1056 04a5 00        		.string	""
 1057 04a6 00        		.string	""
 1058 04a7 00        		.string	""
 1059 04a8 00        		.string	""
 1060 04a9 00        		.string	""
 1061 04aa 4242 4242 		.string	"BBBBBF:"
 1061      4246 3A00 
 1062 04b2 00        		.string	""
 1063 04b3 00        		.string	""
 1064 04b4 00        		.string	""
 1065 04b5 00        		.string	""
 1066 04b6 00        		.string	""
 1067 04b7 00        		.string	""
 1068 04b8 8142 4244 		.string	"\201BBD((\020"
 1068      2828 1000 
 1069 04c0 00        		.string	""
 1070 04c1 00        		.string	""
 1071 04c2 00        		.string	""
 1072 04c3 00        		.string	""
 1073 04c4 00        		.string	""
 1074 04c5 00        		.string	""
 1075 04c6 8189 5A5A 		.string	"\201\211ZZf$$"
 1075      6624 2400 
 1076 04ce 00        		.string	""
 1077 04cf 00        		.string	""
 1078 04d0 00        		.string	""
 1079 04d1 00        		.string	""
 1080 04d2 00        		.string	""
 1081 04d3 00        		.string	""
 1082 04d4 4224 1818 		.string	"B$\030\030\030$B"
 1082      1824 4200 
 1083 04dc 00        		.string	""
 1084 04dd 00        		.string	""
 1085 04de 00        		.string	""
 1086 04df 00        		.string	""
 1087 04e0 00        		.string	""
 1088 04e1 00        		.string	""
 1089 04e2 8142 4224 		.string	"\201BB$$\030\030\0200\340"
 1089      2418 1810 
 1089      30E0 00
 1090 04ed 00        		.string	""
 1091 04ee 00        		.string	""
 1092 04ef 00        		.string	""
 1093 04f0 FE04 0810 		.string	"\376\004\b\020 @\376"
 1093      2040 FE00 
 1094 04f8 00        		.string	""
 1095 04f9 00        		.string	""
 1096               	.global	font8
 1099               	font8:
 1100 04fa 00        		.string	""
 1101 04fb 00        		.string	""
 1102 04fc 00        		.string	""
 1103 04fd 00        		.string	""
 1104 04fe 00        		.string	""
 1105 04ff 00        		.string	""
 1106 0500 00        		.string	""
 1107 0501 00        		.string	""
 1108 0502 3078 7830 		.string	"0xx00"
 1108      3000 
 1109 0508 3000      		.string	"0"
 1110 050a 6C6C 6C00 		.string	"lll"
 1111 050e 00        		.string	""
 1112 050f 00        		.string	""
 1113 0510 00        		.string	""
 1114 0511 00        		.string	""
 1115 0512 6C6C FE6C 		.string	"ll\376l\376ll"
 1115      FE6C 6C00 
 1116 051a 307C C078 		.string	"0|\300x\f\3700"
 1116      0CF8 3000 
 1117 0522 00        		.string	""
 1118 0523 C6CC 1830 		.string	"\306\314\0300f\306"
 1118      66C6 00
 1119 052a 386C 3876 		.string	"8l8v\334\314v"
 1119      DCCC 7600 
 1120 0532 6060 C000 		.string	"``\300"
 1121 0536 00        		.string	""
 1122 0537 00        		.string	""
 1123 0538 00        		.string	""
 1124 0539 00        		.string	""
 1125 053a 1830 6060 		.string	"\0300```0\030"
 1125      6030 1800 
 1126 0542 6030 1818 		.string	"`0\030\030\0300`"
 1126      1830 6000 
 1127 054a 386C 6C38 		.string	"8ll8"
 1127      00
 1128 054f 00        		.string	""
 1129 0550 00        		.string	""
 1130 0551 00        		.string	""
 1131 0552 00        		.string	""
 1132 0553 3030 FC30 		.string	"00\37400"
 1132      3000 
 1133 0559 00        		.string	""
 1134 055a 00        		.string	""
 1135 055b 00        		.string	""
 1136 055c 00        		.string	""
 1137 055d 00        		.string	""
 1138 055e 00        		.string	""
 1139 055f 7030 6000 		.string	"p0`"
 1140 0563 00        		.string	""
 1141 0564 00        		.string	""
 1142 0565 FC00      		.string	"\374"
 1143 0567 00        		.string	""
 1144 0568 00        		.string	""
 1145 0569 00        		.string	""
 1146 056a 00        		.string	""
 1147 056b 00        		.string	""
 1148 056c 00        		.string	""
 1149 056d 00        		.string	""
 1150 056e 00        		.string	""
 1151 056f 3030 00   		.string	"00"
 1152 0572 060C 1830 		.string	"\006\f\0300`\300\200"
 1152      60C0 8000 
 1153 057a 78CC DCFC 		.string	"x\314\334\374\354\314x"
 1153      ECCC 7800 
 1154 0582 30F0 3030 		.string	"0\3600000\374"
 1154      3030 FC00 
 1155 058a 78CC 0C38 		.string	"x\314\f8`\314\374"
 1155      60CC FC00 
 1156 0592 78CC 0C38 		.string	"x\314\f8\f\314x"
 1156      0CCC 7800 
 1157 059a 1C3C 6CCC 		.string	"\034<l\314\376\f\f"
 1157      FE0C 0C00 
 1158 05a2 FCC0 F80C 		.string	"\374\300\370\f\f\314x"
 1158      0CCC 7800 
 1159 05aa 3860 C0F8 		.string	"8`\300\370\314\314x"
 1159      CCCC 7800 
 1160 05b2 FCCC 0C18 		.string	"\374\314\f\0300``"
 1160      3060 6000 
 1161 05ba 78CC CC78 		.string	"x\314\314x\314\314x"
 1161      CCCC 7800 
 1162 05c2 78CC CC7C 		.string	"x\314\314|\f\030p"
 1162      0C18 7000 
 1163 05ca 00        		.string	""
 1164 05cb 00        		.string	""
 1165 05cc 3030 00   		.string	"00"
 1166 05cf 3030 00   		.string	"00"
 1167 05d2 00        		.string	""
 1168 05d3 00        		.string	""
 1169 05d4 3030 00   		.string	"00"
 1170 05d7 7030 6018 		.string	"p0`\0300`\300`0\030"
 1170      3060 C060 
 1170      3018 00
 1171 05e2 00        		.string	""
 1172 05e3 00        		.string	""
 1173 05e4 FC00      		.string	"\374"
 1174 05e6 FC00      		.string	"\374"
 1175 05e8 00        		.string	""
 1176 05e9 00        		.string	""
 1177 05ea 6030 180C 		.string	"`0\030\f\0300`"
 1177      1830 6000 
 1178 05f2 78CC 0C18 		.string	"x\314\f\0300"
 1178      3000 
 1179 05f8 3000      		.string	"0"
 1180 05fa 7CC6 DEDE 		.string	"|\306\336\336\336\300x"
 1180      DEC0 7800 
 1181 0602 3078 CCCC 		.string	"0x\314\314\374\314\314"
 1181      FCCC CC00 
 1182 060a FC66 667C 		.string	"\374ff|ff\374"
 1182      6666 FC00 
 1183 0612 3C66 C0C0 		.string	"<f\300\300\300f<"
 1183      C066 3C00 
 1184 061a FC6C 6666 		.string	"\374lfffl\374"
 1184      666C FC00 
 1185 0622 FE62 6878 		.string	"\376bhxhb\376"
 1185      6862 FE00 
 1186 062a FE62 6878 		.string	"\376bhxh`\360"
 1186      6860 F000 
 1187 0632 3C66 C0C0 		.string	"<f\300\300\316f>"
 1187      CE66 3E00 
 1188 063a CCCC CCFC 		.string	"\314\314\314\374\314\314\314"
 1188      CCCC CC00 
 1189 0642 7830 3030 		.string	"x00000x"
 1189      3030 7800 
 1190 064a 1E0C 0C0C 		.string	"\036\f\f\f\314\314x"
 1190      CCCC 7800 
 1191 0652 E666 6C78 		.string	"\346flxlf\346"
 1191      6C66 E600 
 1192 065a F060 6060 		.string	"\360```bf\376"
 1192      6266 FE00 
 1193 0662 C6EE FED6 		.string	"\306\356\376\326\306\306\306"
 1193      C6C6 C600 
 1194 066a C6E6 F6DE 		.string	"\306\346\366\336\316\306\306"
 1194      CEC6 C600 
 1195 0672 386C C6C6 		.string	"8l\306\306\306l8"
 1195      C66C 3800 
 1196 067a FC66 667C 		.string	"\374ff|``\360"
 1196      6060 F000 
 1197 0682 78CC CCCC 		.string	"x\314\314\314\334x\034"
 1197      DC78 1C00 
 1198 068a FC66 667C 		.string	"\374ff|xl\346"
 1198      786C E600 
 1199 0692 78CC E038 		.string	"x\314\3408\034\314x"
 1199      1CCC 7800 
 1200 069a FCB4 3030 		.string	"\374\2640000x"
 1200      3030 7800 
 1201 06a2 CCCC CCCC 		.string	"\314\314\314\314\314\314\374"
 1201      CCCC FC00 
 1202 06aa CCCC CCCC 		.string	"\314\314\314\314\314x0"
 1202      CC78 3000 
 1203 06b2 C6C6 C6D6 		.string	"\306\306\306\326\376\356\306"
 1203      FEEE C600 
 1204 06ba C6C6 6C38 		.string	"\306\306l8l\306\306"
 1204      6CC6 C600 
 1205 06c2 CCCC CC78 		.string	"\314\314\314x00x"
 1205      3030 7800 
 1206 06ca FECC 9830 		.string	"\376\314\2300b\306\376"
 1206      62C6 FE00 
 1207 06d2 7860 6060 		.string	"x`````x"
 1207      6060 7800 
 1208 06da C060 3018 		.string	"\300`0\030\f\006\002"
 1208      0C06 0200 
 1209 06e2 7818 1818 		.string	"x\030\030\030\030\030x"
 1209      1818 7800 
 1210 06ea 1038 6CC6 		.string	"\0208l\306"
 1210      00
 1211 06ef 00        		.string	""
 1212 06f0 00        		.string	""
 1213 06f1 00        		.string	""
 1214 06f2 00        		.string	""
 1215 06f3 00        		.string	""
 1216 06f4 00        		.string	""
 1217 06f5 00        		.string	""
 1218 06f6 00        		.string	""
 1219 06f7 00        		.string	""
 1220 06f8 00        		.string	""
 1221 06f9 FF30 3018 		.string	"\37700\030"
 1221      00
 1222 06fe 00        		.string	""
 1223 06ff 00        		.string	""
 1224 0700 00        		.string	""
 1225 0701 00        		.string	""
 1226 0702 00        		.string	""
 1227 0703 00        		.string	""
 1228 0704 780C 7CCC 		.string	"x\f|\314v"
 1228      7600 
 1229 070a E060 7C66 		.string	"\340`|fff\274"
 1229      6666 BC00 
 1230 0712 00        		.string	""
 1231 0713 00        		.string	""
 1232 0714 78CC C0CC 		.string	"x\314\300\314x"
 1232      7800 
 1233 071a 1C0C 0C7C 		.string	"\034\f\f|\314\314v"
 1233      CCCC 7600 
 1234 0722 00        		.string	""
 1235 0723 00        		.string	""
 1236 0724 78CC FCC0 		.string	"x\314\374\300x"
 1236      7800 
 1237 072a 386C 60F0 		.string	"8l`\360``\360"
 1237      6060 F000 
 1238 0732 00        		.string	""
 1239 0733 00        		.string	""
 1240 0734 76CC CC7C 		.string	"v\314\314|\f\370\340`lvff\346"
 1240      0CF8 E060 
 1240      6C76 6666 
 1240      E600 
 1241 0742 3000      		.string	"0"
 1242 0744 7030 3030 		.string	"p000x"
 1242      7800 
 1243 074a 1800      		.string	"\030"
 1244 074c 7818 1818 		.string	"x\030\030\030\330p\340`flxl\346"
 1244      D870 E060 
 1244      666C 786C 
 1244      E600 
 1245 075a 7030 3030 		.string	"p00000x"
 1245      3030 7800 
 1246 0762 00        		.string	""
 1247 0763 00        		.string	""
 1248 0764 ECFE D6C6 		.string	"\354\376\326\306\306"
 1248      C600 
 1249 076a 00        		.string	""
 1250 076b 00        		.string	""
 1251 076c F8CC CCCC 		.string	"\370\314\314\314\314"
 1251      CC00 
 1252 0772 00        		.string	""
 1253 0773 00        		.string	""
 1254 0774 78CC CCCC 		.string	"x\314\314\314x"
 1254      7800 
 1255 077a 00        		.string	""
 1256 077b 00        		.string	""
 1257 077c DC66 667C 		.string	"\334ff|`\360"
 1257      60F0 00
 1258 0783 00        		.string	""
 1259 0784 76CC CC7C 		.string	"v\314\314|\f\036"
 1259      0C1E 00
 1260 078b 00        		.string	""
 1261 078c D86C 6C60 		.string	"\330ll`\360"
 1261      F000 
 1262 0792 00        		.string	""
 1263 0793 00        		.string	""
 1264 0794 7CC0 780C 		.string	"|\300x\f\370"
 1264      F800 
 1265 079a 1030 7C30 		.string	"\0200|004\030"
 1265      3034 1800 
 1266 07a2 00        		.string	""
 1267 07a3 00        		.string	""
 1268 07a4 CCCC CCCC 		.string	"\314\314\314\314v"
 1268      7600 
 1269 07aa 00        		.string	""
 1270 07ab 00        		.string	""
 1271 07ac CCCC CC78 		.string	"\314\314\314x0"
 1271      3000 
 1272 07b2 00        		.string	""
 1273 07b3 00        		.string	""
 1274 07b4 C6C6 D6FE 		.string	"\306\306\326\376l"
 1274      6C00 
 1275 07ba 00        		.string	""
 1276 07bb 00        		.string	""
 1277 07bc C66C 386C 		.string	"\306l8l\306"
 1277      C600 
 1278 07c2 00        		.string	""
 1279 07c3 00        		.string	""
 1280 07c4 CCCC CC7C 		.string	"\314\314\314|\f\370"
 1280      0CF8 00
 1281 07cb 00        		.string	""
 1282 07cc FC98 3064 		.string	"\374\2300d\374"
 1282      FC00 
 1283               		.text
 1284               	.Letext0:
 1285               		.file 2 "/usr/avr/include/stdint.h"
 1286               		.file 3 "fonts.h"
DEFINED SYMBOLS
                            *ABS*:0000000000000000 main.c
     /tmp/cc1ZVC6c.s:2      *ABS*:000000000000003e __SP_H__
     /tmp/cc1ZVC6c.s:3      *ABS*:000000000000003d __SP_L__
     /tmp/cc1ZVC6c.s:4      *ABS*:000000000000003f __SREG__
     /tmp/cc1ZVC6c.s:5      *ABS*:0000000000000000 __tmp_reg__
     /tmp/cc1ZVC6c.s:6      *ABS*:0000000000000001 __zero_reg__
     /tmp/cc1ZVC6c.s:36     .text.startup:0000000000000000 main
     /tmp/cc1ZVC6c.s:568    .bss:000000000000001b ms10
     /tmp/cc1ZVC6c.s:563    .bss:000000000000001a ms100
     /tmp/cc1ZVC6c.s:558    .bss:0000000000000019 sec
     /tmp/cc1ZVC6c.s:553    .bss:0000000000000018 min
     /tmp/cc1ZVC6c.s:548    .bss:0000000000000017 entprell
     /tmp/cc1ZVC6c.s:543    .bss:0000000000000016 screentoggle
     /tmp/cc1ZVC6c.s:538    .bss:0000000000000015 toggle
     /tmp/cc1ZVC6c.s:533    .bss:0000000000000014 toggle_alt
     /tmp/cc1ZVC6c.s:573    .bss:000000000000001c state
     /tmp/cc1ZVC6c.s:528    .bss:0000000000000000 buffer
     /tmp/cc1ZVC6c.s:588    .bss:0000000000000021 temp
     /tmp/cc1ZVC6c.s:583    .bss:000000000000001f test
     /tmp/cc1ZVC6c.s:414    .text:0000000000000000 __vector_11
                            *ABS*:0000000000000003 __gcc_isr.n_pushed.001
     /tmp/cc1ZVC6c.s:578    .bss:000000000000001d roman
     /tmp/cc1ZVC6c.s:594    .progmem.data:0000000000000000 font14
     /tmp/cc1ZVC6c.s:1099   .progmem.data:00000000000004fa font8

UNDEFINED SYMBOLS
SPI_MasterInit
Display_Init
Display_Clear
Set_Page_Address
Set_Column_Address
TWIInit
sht21_init
Write_String
sht21_measure
sprintf
__do_copy_data
__do_clear_bss
